; Function Attrs: mustprogress ssp uwtable
define void @_ZN6open3d4core7MaximumERKNS0_6TensorES3_(ptr dead_on_unwind noalias writable sret(%"class.open3d::core::Tensor") align 8 %0, ptr noundef nonnull align 8 dereferenceable(160) %1, ptr noundef nonnull align 8 dereferenceable(160) %2) local_unnamed_addr #4 personality ptr @__gxx_personality_v0 {
  %4 = alloca %"class.open3d::core::Device", align 8
  %5 = alloca %"class.open3d::core::Dtype", align 8
  %6 = alloca %"class.open3d::core::SizeVector", align 8
  %7 = alloca %"class.open3d::core::SizeVector", align 8
  %8 = alloca %"class.open3d::core::SizeVector", align 8
  %9 = alloca %"class.open3d::core::Dtype", align 8
  %10 = alloca %"class.open3d::core::Device", align 8
  call void @llvm.lifetime.start.p0(i64 8, ptr nonnull %4) #34
  %11 = load ptr, ptr %2, align 8, !tbaa !45
  %12 = getelementptr inbounds nuw i8, ptr %11, i64 16
  %13 = load ptr, ptr %12, align 8
  %14 = tail call i64 %13(ptr noundef nonnull align 8 dereferenceable(160) %2)
  store i64 %14, ptr %4, align 8
  call void @_ZN6open3d4core12tensor_check19AssertTensorDevice_EPKciS3_RKNS0_6TensorERKNS0_6DeviceE(ptr noundef nonnull @.str, i32 noundef 125, ptr noundef nonnull @__PRETTY_FUNCTION__._ZN6open3d4core7MaximumERKNS0_6TensorES3_, ptr noundef nonnull align 8 dereferenceable(160) %1, ptr noundef nonnull align 4 dereferenceable(8) %4)
  call void @llvm.lifetime.end.p0(i64 8, ptr nonnull %4) #34
  call void @llvm.lifetime.start.p0(i64 32, ptr nonnull %5) #34
  %15 = getelementptr inbounds nuw i8, ptr %2, i64 112
  call void @llvm.memcpy.p0.p0.i64(ptr noundef nonnull align 8 dereferenceable(32) %5, ptr noundef nonnull align 8 dereferenceable(32) %15, i64 32, i1 false), !tbaa.struct !78
  call void @_ZN6open3d4core12tensor_check18AssertTensorDtype_EPKciS3_RKNS0_6TensorERKNS0_5DtypeE(ptr noundef nonnull @.str, i32 noundef 126, ptr noundef nonnull @__PRETTY_FUNCTION__._ZN6open3d4core7MaximumERKNS0_6TensorES3_, ptr noundef nonnull align 8 dereferenceable(160) %1, ptr noundef nonnull align 8 dereferenceable(32) %5)
  call void @llvm.lifetime.end.p0(i64 32, ptr nonnull %5) #34
  call void @llvm.lifetime.start.p0(i64 48, ptr nonnull %6) #34
  call void @llvm.lifetime.start.p0(i64 48, ptr nonnull %7) #34
  %16 = getelementptr inbounds nuw i8, ptr %1, i64 8
  call void @_ZN6open3d4core10SizeVectorC1ERKS1_(ptr noundef nonnull align 8 dereferenceable(48) %7, ptr noundef nonnull align 8 dereferenceable(48) %16)
  call void @llvm.lifetime.start.p0(i64 48, ptr nonnull %8) #34
  %17 = getelementptr inbounds nuw i8, ptr %2, i64 8
  invoke void @_ZN6open3d4core10SizeVectorC1ERKS1_(ptr noundef nonnull align 8 dereferenceable(48) %8, ptr noundef nonnull align 8 dereferenceable(48) %17)
          to label %_ZNK6open3d4core6Tensor8GetShapeEv.exit unwind label %38

_ZNK6open3d4core6Tensor8GetShapeEv.exit:          ; preds = %3
  invoke void @_ZN6open3d4core10shape_util16BroadcastedShapeERKNS0_10SizeVectorES4_(ptr dead_on_unwind nonnull writable sret(%"class.open3d::core::SizeVector") align 8 %6, ptr noundef nonnull align 8 dereferenceable(48) %7, ptr noundef nonnull align 8 dereferenceable(48) %8)
          to label %18 unwind label %40

18:                                               ; preds = %_ZNK6open3d4core6Tensor8GetShapeEv.exit
  %19 = getelementptr inbounds nuw i8, ptr %1, i64 112
  call void @llvm.memcpy.p0.p0.i64(ptr noundef nonnull align 8 dereferenceable(32) %9, ptr noundef nonnull align 8 dereferenceable(32) %19, i64 32, i1 false), !tbaa.struct !78
  call void @llvm.lifetime.start.p0(i64 8, ptr nonnull %10) #34
  %20 = load ptr, ptr %1, align 8, !tbaa !45
  %21 = getelementptr inbounds nuw i8, ptr %20, i64 16
  %22 = load ptr, ptr %21, align 8
  %23 = invoke i64 %22(ptr noundef nonnull align 8 dereferenceable(160) %1)
          to label %24 unwind label %42

24:                                               ; preds = %18
  store i64 %23, ptr %10, align 8
  invoke void @_ZN6open3d4core6TensorC2ERKNS0_10SizeVectorENS0_5DtypeERKNS0_6DeviceE(ptr noundef nonnull align 8 dereferenceable(160) %0, ptr noundef nonnull align 8 dereferenceable(48) %6, ptr noundef nonnull byval(%"class.open3d::core::Dtype") align 8 %9, ptr noundef nonnull align 4 dereferenceable(8) %10)
          to label %25 unwind label %42

25:                                               ; preds = %24
  call void @llvm.lifetime.end.p0(i64 8, ptr nonnull %10) #34
  %26 = load ptr, ptr %6, align 8, !tbaa !41
  %27 = getelementptr inbounds nuw i8, ptr %6, i64 16
  %28 = icmp eq ptr %26, %27
  br i1 %28, label %_ZN6open3d4core11SmallVectorIlLj4EED2Ev.exit, label %29

29:                                               ; preds = %25
  call void @free(ptr noundef %26) #34
  br label %_ZN6open3d4core11SmallVectorIlLj4EED2Ev.exit

_ZN6open3d4core11SmallVectorIlLj4EED2Ev.exit:     ; preds = %25, %29
  %30 = load ptr, ptr %8, align 8, !tbaa !41
  %31 = getelementptr inbounds nuw i8, ptr %8, i64 16
  %32 = icmp eq ptr %30, %31
  br i1 %32, label %_ZN6open3d4core11SmallVectorIlLj4EED2Ev.exit19, label %33

33:                                               ; preds = %_ZN6open3d4core11SmallVectorIlLj4EED2Ev.exit
  call void @free(ptr noundef %30) #34
  br label %_ZN6open3d4core11SmallVectorIlLj4EED2Ev.exit19

_ZN6open3d4core11SmallVectorIlLj4EED2Ev.exit19:   ; preds = %_ZN6open3d4core11SmallVectorIlLj4EED2Ev.exit, %33
  call void @llvm.lifetime.end.p0(i64 48, ptr nonnull %8) #34
  %34 = load ptr, ptr %7, align 8, !tbaa !41
  %35 = getelementptr inbounds nuw i8, ptr %7, i64 16
  %36 = icmp eq ptr %34, %35
  br i1 %36, label %_ZN6open3d4core11SmallVectorIlLj4EED2Ev.exit20, label %37

37:                                               ; preds = %_ZN6open3d4core11SmallVectorIlLj4EED2Ev.exit19
  call void @free(ptr noundef %34) #34
  br label %_ZN6open3d4core11SmallVectorIlLj4EED2Ev.exit20

_ZN6open3d4core11SmallVectorIlLj4EED2Ev.exit20:   ; preds = %_ZN6open3d4core11SmallVectorIlLj4EED2Ev.exit19, %37
  call void @llvm.lifetime.end.p0(i64 48, ptr nonnull %7) #34
  call void @llvm.lifetime.end.p0(i64 48, ptr nonnull %6) #34
  invoke void @_ZN6open3d4core6kernel8BinaryEWERKNS0_6TensorES4_RS2_NS1_14BinaryEWOpCodeE(ptr noundef nonnull align 8 dereferenceable(160) %1, ptr noundef nonnull align 8 dereferenceable(160) %2, ptr noundef nonnull align 8 dereferenceable(160) %0, i32 noundef 4)
          to label %58 unwind label %56

38:                                               ; preds = %3
  %39 = landingpad { ptr, i32 }
          cleanup
  br label %_ZN6open3d4core11SmallVectorIlLj4EED2Ev.exit22

40:                                               ; preds = %_ZNK6open3d4core6Tensor8GetShapeEv.exit
  %41 = landingpad { ptr, i32 }
          cleanup
  br label %_ZN6open3d4core11SmallVectorIlLj4EED2Ev.exit21

42:                                               ; preds = %24, %18
  %43 = landingpad { ptr, i32 }
          cleanup
  call void @llvm.lifetime.end.p0(i64 8, ptr nonnull %10) #34
  %44 = load ptr, ptr %6, align 8, !tbaa !41
  %45 = getelementptr inbounds nuw i8, ptr %6, i64 16
  %46 = icmp eq ptr %44, %45
  br i1 %46, label %_ZN6open3d4core11SmallVectorIlLj4EED2Ev.exit21, label %47

47:                                               ; preds = %42
  call void @free(ptr noundef %44) #34
  br label %_ZN6open3d4core11SmallVectorIlLj4EED2Ev.exit21

_ZN6open3d4core11SmallVectorIlLj4EED2Ev.exit21:   ; preds = %47, %42, %40
  %.pn = phi { ptr, i32 } [ %41, %40 ], [ %43, %42 ], [ %43, %47 ]
  %48 = load ptr, ptr %8, align 8, !tbaa !41
  %49 = getelementptr inbounds nuw i8, ptr %8, i64 16
  %50 = icmp eq ptr %48, %49
  br i1 %50, label %_ZN6open3d4core11SmallVectorIlLj4EED2Ev.exit22, label %51

51:                                               ; preds = %_ZN6open3d4core11SmallVectorIlLj4EED2Ev.exit21
  call void @free(ptr noundef %48) #34
  br label %_ZN6open3d4core11SmallVectorIlLj4EED2Ev.exit22

_ZN6open3d4core11SmallVectorIlLj4EED2Ev.exit22:   ; preds = %51, %_ZN6open3d4core11SmallVectorIlLj4EED2Ev.exit21, %38
  %.pn.pn = phi { ptr, i32 } [ %39, %38 ], [ %.pn, %_ZN6open3d4core11SmallVectorIlLj4EED2Ev.exit21 ], [ %.pn, %51 ]
  call void @llvm.lifetime.end.p0(i64 48, ptr nonnull %8) #34
  %52 = load ptr, ptr %7, align 8, !tbaa !41
  %53 = getelementptr inbounds nuw i8, ptr %7, i64 16
  %54 = icmp eq ptr %52, %53
  br i1 %54, label %_ZN6open3d4core11SmallVectorIlLj4EED2Ev.exit23, label %55

55:                                               ; preds = %_ZN6open3d4core11SmallVectorIlLj4EED2Ev.exit22
  call void @free(ptr noundef %52) #34
  br label %_ZN6open3d4core11SmallVectorIlLj4EED2Ev.exit23

_ZN6open3d4core11SmallVectorIlLj4EED2Ev.exit23:   ; preds = %_ZN6open3d4core11SmallVectorIlLj4EED2Ev.exit22, %55
  call void @llvm.lifetime.end.p0(i64 48, ptr nonnull %7) #34
  call void @llvm.lifetime.end.p0(i64 48, ptr nonnull %6) #34
  br label %59

56:                                               ; preds = %_ZN6open3d4core11SmallVectorIlLj4EED2Ev.exit20
  %57 = landingpad { ptr, i32 }
          cleanup
  call void @_ZN6open3d4core6TensorD2Ev(ptr noundef nonnull align 8 dereferenceable(160) %0) #34
  br label %59

58:                                               ; preds = %_ZN6open3d4core11SmallVectorIlLj4EED2Ev.exit20
  ret void

59:                                               ; preds = %56, %_ZN6open3d4core11SmallVectorIlLj4EED2Ev.exit23
  %.pn17 = phi { ptr, i32 } [ %57, %56 ], [ %.pn.pn, %_ZN6open3d4core11SmallVectorIlLj4EED2Ev.exit23 ]
  resume { ptr, i32 } %.pn17
}